; Function Attrs: nounwind sspstrong uwtable
define internal fastcc range(i32 0, 2) i32 @int_half_p_half_down(i64 noundef %0) unnamed_addr #2 {
  %2 = and i64 %0, 1
  %.not.i = icmp eq i64 %2, 0
  br i1 %.not.i, label %5, label %3

3:                                                ; preds = %1
  %4 = icmp slt i64 %0, 0
  br label %int_neg_p.exit

5:                                                ; preds = %1
  %6 = icmp eq i64 %0, 0
  %7 = and i64 %0, 6
  %8 = icmp ne i64 %7, 0
  %9 = or i1 %6, %8
  br i1 %9, label %rbimpl_RB_TYPE_P_fastpath.exit.thread.i, label %rbimpl_RB_TYPE_P_fastpath.exit.i

rbimpl_RB_TYPE_P_fastpath.exit.i:                 ; preds = %5
  %10 = inttoptr i64 %0 to ptr
  %11 = load i64, ptr %10, align 8, !tbaa !11
  %12 = and i64 %11, 31
  %13 = icmp eq i64 %12, 10
  br i1 %13, label %14, label %rbimpl_RB_TYPE_P_fastpath.exit.thread.i

14:                                               ; preds = %rbimpl_RB_TYPE_P_fastpath.exit.i
  %15 = and i64 %11, 8192
  %.not.i.i = icmp eq i64 %15, 0
  br label %int_neg_p.exit

rbimpl_RB_TYPE_P_fastpath.exit.thread.i:          ; preds = %rbimpl_RB_TYPE_P_fastpath.exit.i, %5
  %16 = load i64, ptr @rb_eTypeError, align 8, !tbaa !7
  tail call void (i64, ptr, ...) @rb_raise(i64 noundef %16, ptr noundef nonnull @.str.136) #25
  unreachable

int_neg_p.exit:                                   ; preds = %3, %14
  %.0.in.i = phi i1 [ %4, %3 ], [ %.not.i.i, %14 ]
  %.0.i = zext i1 %.0.in.i to i32
  ret i32 %.0.i
}